target datalayout = "e-m:e-p270:32:32-p271:32:32-p272:64:64-i64:64-i128:128-f80:128-n8:16:32:64-S128"
target triple = "x86_64-pc-linux-gnu"

@.str.14 = private unnamed_addr constant [2 x i8] c"/\00", align 1

; Function Attrs: nounwind uwtable
define internal ptr @find_delim(ptr noundef %0, ptr noundef %1, ptr noundef %2) #0 {
  %4 = alloca ptr, align 8
  %5 = alloca ptr, align 8
  %6 = alloca ptr, align 8
  store ptr %0, ptr %4, align 8, !tbaa !4
  store ptr %1, ptr %5, align 8, !tbaa !4
  store ptr %2, ptr %6, align 8, !tbaa !4
  br label %7

7:                                                ; preds = %21, %3
  %8 = load ptr, ptr %5, align 8, !tbaa !4
  %9 = load ptr, ptr %6, align 8, !tbaa !4
  %10 = icmp ult ptr %8, %9
  br i1 %10, label %11, label %19

11:                                               ; preds = %7
  %12 = load ptr, ptr %4, align 8, !tbaa !4
  %13 = load ptr, ptr %5, align 8, !tbaa !4
  %14 = load i8, ptr %13, align 1, !tbaa !11
  %15 = sext i8 %14 to i32
  %16 = call ptr @strchr(ptr noundef %12, i32 noundef %15) #10
  %17 = icmp ne ptr %16, null
  %18 = xor i1 %17, true
  br label %19

19:                                               ; preds = %11, %7
  %20 = phi i1 [ false, %7 ], [ %18, %11 ]
  br i1 %20, label %21, label %24

21:                                               ; preds = %19
  %22 = load ptr, ptr %5, align 8, !tbaa !4
  %23 = getelementptr inbounds nuw i8, ptr %22, i32 1
  store ptr %23, ptr %5, align 8, !tbaa !4
  br label %7, !llvm.loop !33

24:                                               ; preds = %19
  %25 = load ptr, ptr %5, align 8, !tbaa !4
  ret ptr %25
}

; Function Attrs: nounwind uwtable
define internal i32 @append_path(ptr noundef %0, ptr noundef %1, ptr noundef %2, ptr noundef %3, ptr noundef %4) #0 {
  %6 = alloca i32, align 4
  %7 = alloca ptr, align 8
  %8 = alloca ptr, align 8
  %9 = alloca ptr, align 8
  %10 = alloca ptr, align 8
  %11 = alloca ptr, align 8
  %12 = alloca ptr, align 8
  %13 = alloca ptr, align 8
  %14 = alloca ptr, align 8
  %15 = alloca i32, align 4
  store ptr %0, ptr %7, align 8, !tbaa !4
  store ptr %1, ptr %8, align 8, !tbaa !4
  store ptr %2, ptr %9, align 8, !tbaa !36
  store ptr %3, ptr %10, align 8, !tbaa !4
  store ptr %4, ptr %11, align 8, !tbaa !4
  call void @llvm.lifetime.start.p0(i64 8, ptr %12) #9
  %16 = load ptr, ptr %9, align 8, !tbaa !36
  %17 = load ptr, ptr %16, align 8, !tbaa !4
  store ptr %17, ptr %12, align 8, !tbaa !4
  call void @llvm.lifetime.start.p0(i64 8, ptr %13) #9
  call void @llvm.lifetime.start.p0(i64 8, ptr %14) #9
  %18 = load ptr, ptr %10, align 8, !tbaa !4
  %19 = load ptr, ptr %11, align 8, !tbaa !4
  %20 = icmp ult ptr %18, %19
  br i1 %20, label %21, label %29

21:                                               ; preds = %5
  %22 = load ptr, ptr %10, align 8, !tbaa !4
  %23 = load i8, ptr %22, align 1, !tbaa !11
  %24 = sext i8 %23 to i32
  %25 = icmp eq i32 %24, 47
  br i1 %25, label %26, label %29

26:                                               ; preds = %21
  %27 = load ptr, ptr %10, align 8, !tbaa !4
  %28 = getelementptr inbounds nuw i8, ptr %27, i32 1
  store ptr %28, ptr %10, align 8, !tbaa !4
  br label %29

29:                                               ; preds = %26, %21, %5
  br label %30

30:                                               ; preds = %137, %29
  %31 = load ptr, ptr %10, align 8, !tbaa !4
  %32 = load ptr, ptr %11, align 8, !tbaa !4
  %33 = icmp ult ptr %31, %32
  br i1 %33, label %34, label %139

34:                                               ; preds = %30
  %35 = load ptr, ptr %10, align 8, !tbaa !4
  %36 = load ptr, ptr %11, align 8, !tbaa !4
  %37 = call ptr @find_delim(ptr noundef @.str.14, ptr noundef %35, ptr noundef %36)
  store ptr %37, ptr %13, align 8, !tbaa !4
  %38 = load ptr, ptr %13, align 8, !tbaa !4
  %39 = load ptr, ptr %13, align 8, !tbaa !4
  %40 = load ptr, ptr %11, align 8, !tbaa !4
  %41 = icmp ult ptr %39, %40
  br i1 %41, label %42, label %47

42:                                               ; preds = %34
  %43 = load ptr, ptr %13, align 8, !tbaa !4
  %44 = load i8, ptr %43, align 1, !tbaa !11
  %45 = sext i8 %44 to i32
  %46 = icmp eq i32 %45, 47
  br label %47

47:                                               ; preds = %42, %34
  %48 = phi i1 [ false, %34 ], [ %46, %42 ]
  %49 = zext i1 %48 to i32
  %50 = sext i32 %49 to i64
  %51 = getelementptr inbounds i8, ptr %38, i64 %50
  store ptr %51, ptr %14, align 8, !tbaa !4
  %52 = load ptr, ptr %13, align 8, !tbaa !4
  %53 = load ptr, ptr %10, align 8, !tbaa !4
  %54 = ptrtoint ptr %52 to i64
  %55 = ptrtoint ptr %53 to i64
  %56 = sub i64 %54, %55
  %57 = icmp eq i64 %56, 1
  br i1 %57, label %58, label %65

58:                                               ; preds = %47
  %59 = load ptr, ptr %10, align 8, !tbaa !4
  %60 = getelementptr inbounds i8, ptr %59, i64 0
  %61 = load i8, ptr %60, align 1, !tbaa !11
  %62 = sext i8 %61 to i32
  %63 = icmp eq i32 %62, 46
  br i1 %63, label %64, label %65

64:                                               ; preds = %58
  br label %137

65:                                               ; preds = %58, %47
  %66 = load ptr, ptr %13, align 8, !tbaa !4
  %67 = load ptr, ptr %10, align 8, !tbaa !4
  %68 = ptrtoint ptr %66 to i64
  %69 = ptrtoint ptr %67 to i64
  %70 = sub i64 %68, %69
  %71 = icmp eq i64 %70, 2
  br i1 %71, label %72, label %108

72:                                               ; preds = %65
  %73 = load ptr, ptr %10, align 8, !tbaa !4
  %74 = getelementptr inbounds i8, ptr %73, i64 0
  %75 = load i8, ptr %74, align 1, !tbaa !11
  %76 = sext i8 %75 to i32
  %77 = icmp eq i32 %76, 46
  br i1 %77, label %78, label %108

78:                                               ; preds = %72
  %79 = load ptr, ptr %10, align 8, !tbaa !4
  %80 = getelementptr inbounds i8, ptr %79, i64 1
  %81 = load i8, ptr %80, align 1, !tbaa !11
  %82 = sext i8 %81 to i32
  %83 = icmp eq i32 %82, 46
  br i1 %83, label %84, label %108

84:                                               ; preds = %78
  %85 = load ptr, ptr %12, align 8, !tbaa !4
  %86 = load ptr, ptr %7, align 8, !tbaa !4
  %87 = ptrtoint ptr %85 to i64
  %88 = ptrtoint ptr %86 to i64
  %89 = sub i64 %87, %88
  %90 = icmp sgt i64 %89, 1
  br i1 %90, label %91, label %107

91:                                               ; preds = %84
  br label %92

92:                                               ; preds = %105, %91
  %93 = load ptr, ptr %12, align 8, !tbaa !4
  %94 = load ptr, ptr %7, align 8, !tbaa !4
  %95 = icmp ugt ptr %93, %94
  br i1 %95, label %96, label %103

96:                                               ; preds = %92
  %97 = load ptr, ptr %12, align 8, !tbaa !4
  %98 = getelementptr inbounds i8, ptr %97, i32 -1
  store ptr %98, ptr %12, align 8, !tbaa !4
  %99 = getelementptr inbounds i8, ptr %98, i64 -1
  %100 = load i8, ptr %99, align 1, !tbaa !11
  %101 = sext i8 %100 to i32
  %102 = icmp ne i32 %101, 47
  br label %103

103:                                              ; preds = %96, %92
  %104 = phi i1 [ false, %92 ], [ %102, %96 ]
  br i1 %104, label %105, label %106

105:                                              ; preds = %103
  br label %92, !llvm.loop !39

106:                                              ; preds = %103
  br label %107

107:                                              ; preds = %106, %84
  br label %136

108:                                              ; preds = %78, %72, %65
  %109 = load ptr, ptr %8, align 8, !tbaa !4
  %110 = load ptr, ptr %12, align 8, !tbaa !4
  %111 = ptrtoint ptr %109 to i64
  %112 = ptrtoint ptr %110 to i64
  %113 = sub i64 %111, %112
  %114 = load ptr, ptr %14, align 8, !tbaa !4
  %115 = load ptr, ptr %10, align 8, !tbaa !4
  %116 = ptrtoint ptr %114 to i64
  %117 = ptrtoint ptr %115 to i64
  %118 = sub i64 %116, %117
  %119 = icmp slt i64 %113, %118
  br i1 %119, label %120, label %121

120:                                              ; preds = %108
  store i32 -12, ptr %6, align 4
  store i32 1, ptr %15, align 4
  br label %142

121:                                              ; preds = %108
  %122 = load ptr, ptr %12, align 8, !tbaa !4
  %123 = load ptr, ptr %10, align 8, !tbaa !4
  %124 = load ptr, ptr %14, align 8, !tbaa !4
  %125 = load ptr, ptr %10, align 8, !tbaa !4
  %126 = ptrtoint ptr %124 to i64
  %127 = ptrtoint ptr %125 to i64
  %128 = sub i64 %126, %127
  call void @llvm.memmove.p0.p0.i64(ptr align 1 %122, ptr align 1 %123, i64 %128, i1 false)
  %129 = load ptr, ptr %14, align 8, !tbaa !4
  %130 = load ptr, ptr %10, align 8, !tbaa !4
  %131 = ptrtoint ptr %129 to i64
  %132 = ptrtoint ptr %130 to i64
  %133 = sub i64 %131, %132
  %134 = load ptr, ptr %12, align 8, !tbaa !4
  %135 = getelementptr inbounds i8, ptr %134, i64 %133
  store ptr %135, ptr %12, align 8, !tbaa !4
  br label %136

136:                                              ; preds = %121, %107
  br label %137

137:                                              ; preds = %136, %64
  %138 = load ptr, ptr %14, align 8, !tbaa !4
  store ptr %138, ptr %10, align 8, !tbaa !4
  br label %30, !llvm.loop !40

139:                                              ; preds = %30
  %140 = load ptr, ptr %12, align 8, !tbaa !4
  %141 = load ptr, ptr %9, align 8, !tbaa !36
  store ptr %140, ptr %141, align 8, !tbaa !4
  store i32 0, ptr %6, align 4
  store i32 1, ptr %15, align 4
  br label %142

142:                                              ; preds = %139, %120
  call void @llvm.lifetime.end.p0(i64 8, ptr %14) #9
  call void @llvm.lifetime.end.p0(i64 8, ptr %13) #9
  call void @llvm.lifetime.end.p0(i64 8, ptr %12) #9
  %143 = load i32, ptr %6, align 4
  ret i32 %143
}