; Function Attrs: nofree norecurse nosync nounwind memory(readwrite, inaccessiblemem: none) uwtable
define internal fastcc range(i32 -12, 1) i32 @append_path(ptr noundef %0, ptr noundef %1, ptr noundef nonnull captures(none) %2, ptr noundef %3, ptr noundef %4) unnamed_addr #10 {
  %6 = load ptr, ptr %2, align 8, !tbaa !25
  %7 = icmp ult ptr %3, %4
  br i1 %7, label %8, label %11

8:                                                ; preds = %5
  %9 = load i8, ptr %3, align 1, !tbaa !4
  %10 = icmp eq i8 %9, 47
  %spec.select.idx = zext i1 %10 to i64
  %spec.select = getelementptr inbounds nuw i8, ptr %3, i64 %spec.select.idx
  br label %11

11:                                               ; preds = %8, %5
  %.039 = phi ptr [ %3, %5 ], [ %spec.select, %8 ]
  %12 = icmp ult ptr %.039, %4
  br i1 %12, label %.lr.ph.preheader.i.lr.ph, label %._crit_edge

.lr.ph.preheader.i.lr.ph:                         ; preds = %11
  %13 = ptrtoint ptr %4 to i64
  %14 = ptrtoint ptr %0 to i64
  %15 = ptrtoint ptr %1 to i64
  br label %.lr.ph.preheader.i

.lr.ph.preheader.i:                               ; preds = %.lr.ph.preheader.i.lr.ph, %.critedge
  %.150 = phi ptr [ %.039, %.lr.ph.preheader.i.lr.ph ], [ %28, %.critedge ]
  %.04049 = phi ptr [ %6, %.lr.ph.preheader.i.lr.ph ], [ %.141, %.critedge ]
  %16 = ptrtoint ptr %.150 to i64
  %17 = sub i64 %13, %16
  %scevgep.i = getelementptr i8, ptr %.150, i64 %17
  br label %.lr.ph.i

.lr.ph.i:                                         ; preds = %19, %.lr.ph.preheader.i
  %.06.i = phi ptr [ %20, %19 ], [ %.150, %.lr.ph.preheader.i ]
  %18 = load i8, ptr %.06.i, align 1, !tbaa !4
  switch i8 %18, label %19 [
    i8 47, label %find_delim.exit
    i8 0, label %find_delim.exit
  ]

19:                                               ; preds = %.lr.ph.i
  %20 = getelementptr inbounds nuw i8, ptr %.06.i, i64 1
  %exitcond.not.i = icmp eq ptr %20, %4
  br i1 %exitcond.not.i, label %find_delim.exit, label %.lr.ph.i, !llvm.loop !19

find_delim.exit:                                  ; preds = %.lr.ph.i, %.lr.ph.i, %19
  %.0.lcssa.i = phi ptr [ %scevgep.i, %19 ], [ %.06.i, %.lr.ph.i ], [ %.06.i, %.lr.ph.i ]
  %21 = icmp ult ptr %.0.lcssa.i, %4
  br i1 %21, label %22, label %26

22:                                               ; preds = %find_delim.exit
  %23 = load i8, ptr %.0.lcssa.i, align 1, !tbaa !4
  %24 = icmp eq i8 %23, 47
  %25 = zext i1 %24 to i64
  br label %26

26:                                               ; preds = %22, %find_delim.exit
  %27 = phi i64 [ 0, %find_delim.exit ], [ %25, %22 ]
  %28 = getelementptr inbounds nuw i8, ptr %.0.lcssa.i, i64 %27
  %29 = ptrtoint ptr %.0.lcssa.i to i64
  %30 = sub i64 %29, %16
  switch i64 %30, label %50 [
    i64 1, label %31
    i64 2, label %34
  ]

31:                                               ; preds = %26
  %32 = load i8, ptr %.150, align 1, !tbaa !4
  %33 = icmp eq i8 %32, 46
  br i1 %33, label %.critedge, label %50

34:                                               ; preds = %26
  %35 = load i8, ptr %.150, align 1, !tbaa !4
  %36 = icmp eq i8 %35, 46
  br i1 %36, label %37, label %50

37:                                               ; preds = %34
  %38 = getelementptr inbounds nuw i8, ptr %.150, i64 1
  %39 = load i8, ptr %38, align 1, !tbaa !4
  %40 = icmp eq i8 %39, 46
  br i1 %40, label %41, label %50

41:                                               ; preds = %37
  %42 = ptrtoint ptr %.04049 to i64
  %43 = sub i64 %42, %14
  %44 = icmp sgt i64 %43, 1
  br i1 %44, label %.preheader, label %.critedge

.preheader:                                       ; preds = %41, %46
  %.2 = phi ptr [ %47, %46 ], [ %.04049, %41 ]
  %45 = icmp ugt ptr %.2, %0
  br i1 %45, label %46, label %.critedge

46:                                               ; preds = %.preheader
  %47 = getelementptr inbounds i8, ptr %.2, i64 -1
  %48 = getelementptr inbounds i8, ptr %.2, i64 -2
  %49 = load i8, ptr %48, align 1, !tbaa !4
  %.not = icmp eq i8 %49, 47
  br i1 %.not, label %.critedge, label %.preheader, !llvm.loop !31

50:                                               ; preds = %31, %26, %37, %34
  %51 = ptrtoint ptr %.04049 to i64
  %52 = sub i64 %15, %51
  %53 = ptrtoint ptr %28 to i64
  %54 = sub i64 %53, %16
  %55 = icmp slt i64 %52, %54
  br i1 %55, label %.loopexit, label %56

56:                                               ; preds = %50
  tail call void @llvm.memmove.p0.p0.i64(ptr align 1 %.04049, ptr align 1 %.150, i64 %54, i1 false)
  %57 = getelementptr inbounds i8, ptr %.04049, i64 %54
  br label %.critedge

.critedge:                                        ; preds = %46, %.preheader, %56, %41, %31
  %.141 = phi ptr [ %.04049, %31 ], [ %.04049, %41 ], [ %57, %56 ], [ %.2, %.preheader ], [ %47, %46 ]
  %58 = icmp ult ptr %28, %4
  br i1 %58, label %.lr.ph.preheader.i, label %._crit_edge, !llvm.loop !32

._crit_edge:                                      ; preds = %.critedge, %11
  %.040.lcssa = phi ptr [ %6, %11 ], [ %.141, %.critedge ]
  store ptr %.040.lcssa, ptr %2, align 8, !tbaa !25
  br label %.loopexit

.loopexit:                                        ; preds = %50, %._crit_edge
  %.0 = phi i32 [ 0, %._crit_edge ], [ -12, %50 ]
  ret i32 %.0
}